target datalayout = "e-m:e-p270:32:32-p271:32:32-p272:64:64-i64:64-i128:128-f80:128-n8:16:32:64-S128"
target triple = "x86_64-pc-linux-gnu"

%struct.gz_state = type { %struct.gzFile_s, i32, i32, ptr, i32, i32, ptr, ptr, i32, i32, i64, i32, i32, i32, i32, i32, i64, i32, i32, ptr, %struct.z_stream_s }
%struct.gzFile_s = type { i32, ptr, i64 }
%struct.z_stream_s = type { ptr, i32, i64, ptr, i32, i64, ptr, ptr, ptr, ptr, ptr, i32, i64, i64 }

@.str.2 = private unnamed_addr constant [31 x i8] c"out of room to push characters\00", align 1

; Function Attrs: nounwind uwtable
define internal i32 @gz_skip(ptr noundef %0, i64 noundef %1) #0 {
  %3 = alloca i32, align 4
  %4 = alloca ptr, align 8
  %5 = alloca i64, align 8
  %6 = alloca i32, align 4
  %7 = alloca i32, align 4
  store ptr %0, ptr %4, align 8, !tbaa !8
  store i64 %1, ptr %5, align 8, !tbaa !19
  call void @llvm.lifetime.start.p0(i64 4, ptr %6) #8
  br label %8

8:                                                ; preds = %78, %2
  %9 = load i64, ptr %5, align 8, !tbaa !19
  %10 = icmp ne i64 %9, 0
  br i1 %10, label %11, label %79

11:                                               ; preds = %8
  %12 = load ptr, ptr %4, align 8, !tbaa !8
  %13 = getelementptr inbounds nuw %struct.gz_state, ptr %12, i32 0, i32 0
  %14 = getelementptr inbounds nuw %struct.gzFile_s, ptr %13, i32 0, i32 0
  %15 = load i32, ptr %14, align 8, !tbaa !22
  %16 = icmp ne i32 %15, 0
  br i1 %16, label %17, label %59

17:                                               ; preds = %11
  %18 = load ptr, ptr %4, align 8, !tbaa !8
  %19 = getelementptr inbounds nuw %struct.gz_state, ptr %18, i32 0, i32 0
  %20 = getelementptr inbounds nuw %struct.gzFile_s, ptr %19, i32 0, i32 0
  %21 = load i32, ptr %20, align 8, !tbaa !22
  %22 = zext i32 %21 to i64
  %23 = load i64, ptr %5, align 8, !tbaa !19
  %24 = icmp sgt i64 %22, %23
  br i1 %24, label %25, label %28

25:                                               ; preds = %17
  %26 = load i64, ptr %5, align 8, !tbaa !19
  %27 = trunc i64 %26 to i32
  br label %33

28:                                               ; preds = %17
  %29 = load ptr, ptr %4, align 8, !tbaa !8
  %30 = getelementptr inbounds nuw %struct.gz_state, ptr %29, i32 0, i32 0
  %31 = getelementptr inbounds nuw %struct.gzFile_s, ptr %30, i32 0, i32 0
  %32 = load i32, ptr %31, align 8, !tbaa !22
  br label %33

33:                                               ; preds = %28, %25
  %34 = phi i32 [ %27, %25 ], [ %32, %28 ]
  store i32 %34, ptr %6, align 4, !tbaa !9
  %35 = load i32, ptr %6, align 4, !tbaa !9
  %36 = load ptr, ptr %4, align 8, !tbaa !8
  %37 = getelementptr inbounds nuw %struct.gz_state, ptr %36, i32 0, i32 0
  %38 = getelementptr inbounds nuw %struct.gzFile_s, ptr %37, i32 0, i32 0
  %39 = load i32, ptr %38, align 8, !tbaa !22
  %40 = sub i32 %39, %35
  store i32 %40, ptr %38, align 8, !tbaa !22
  %41 = load i32, ptr %6, align 4, !tbaa !9
  %42 = load ptr, ptr %4, align 8, !tbaa !8
  %43 = getelementptr inbounds nuw %struct.gz_state, ptr %42, i32 0, i32 0
  %44 = getelementptr inbounds nuw %struct.gzFile_s, ptr %43, i32 0, i32 1
  %45 = load ptr, ptr %44, align 8, !tbaa !23
  %46 = zext i32 %41 to i64
  %47 = getelementptr inbounds nuw i8, ptr %45, i64 %46
  store ptr %47, ptr %44, align 8, !tbaa !23
  %48 = load i32, ptr %6, align 4, !tbaa !9
  %49 = zext i32 %48 to i64
  %50 = load ptr, ptr %4, align 8, !tbaa !8
  %51 = getelementptr inbounds nuw %struct.gz_state, ptr %50, i32 0, i32 0
  %52 = getelementptr inbounds nuw %struct.gzFile_s, ptr %51, i32 0, i32 2
  %53 = load i64, ptr %52, align 8, !tbaa !31
  %54 = add nsw i64 %53, %49
  store i64 %54, ptr %52, align 8, !tbaa !31
  %55 = load i32, ptr %6, align 4, !tbaa !9
  %56 = zext i32 %55 to i64
  %57 = load i64, ptr %5, align 8, !tbaa !19
  %58 = sub nsw i64 %57, %56
  store i64 %58, ptr %5, align 8, !tbaa !19
  br label %78

59:                                               ; preds = %11
  %60 = load ptr, ptr %4, align 8, !tbaa !8
  %61 = getelementptr inbounds nuw %struct.gz_state, ptr %60, i32 0, i32 11
  %62 = load i32, ptr %61, align 8, !tbaa !24
  %63 = icmp ne i32 %62, 0
  br i1 %63, label %64, label %71

64:                                               ; preds = %59
  %65 = load ptr, ptr %4, align 8, !tbaa !8
  %66 = getelementptr inbounds nuw %struct.gz_state, ptr %65, i32 0, i32 20
  %67 = getelementptr inbounds nuw %struct.z_stream_s, ptr %66, i32 0, i32 1
  %68 = load i32, ptr %67, align 8, !tbaa !25
  %69 = icmp eq i32 %68, 0
  br i1 %69, label %70, label %71

70:                                               ; preds = %64
  br label %79

71:                                               ; preds = %64, %59
  %72 = load ptr, ptr %4, align 8, !tbaa !8
  %73 = call i32 @gz_fetch(ptr noundef %72)
  %74 = icmp eq i32 %73, -1
  br i1 %74, label %75, label %76

75:                                               ; preds = %71
  store i32 -1, ptr %3, align 4
  store i32 1, ptr %7, align 4
  br label %80

76:                                               ; preds = %71
  br label %77

77:                                               ; preds = %76
  br label %78

78:                                               ; preds = %77, %33
  br label %8, !llvm.loop !49

79:                                               ; preds = %70, %8
  store i32 0, ptr %3, align 4
  store i32 1, ptr %7, align 4
  br label %80

80:                                               ; preds = %79, %75
  call void @llvm.lifetime.end.p0(i64 4, ptr %6) #8
  %81 = load i32, ptr %3, align 4
  ret i32 %81
}

; Function Attrs: nounwind uwtable
define i32 @gzungetc(i32 noundef %0, ptr noundef %1) #0 {
  %3 = alloca i32, align 4
  %4 = alloca i32, align 4
  %5 = alloca ptr, align 8
  %6 = alloca ptr, align 8
  %7 = alloca i32, align 4
  %8 = alloca ptr, align 8
  %9 = alloca ptr, align 8
  store i32 %0, ptr %4, align 4, !tbaa !9
  store ptr %1, ptr %5, align 8, !tbaa !3
  call void @llvm.lifetime.start.p0(i64 8, ptr %6) #8
  %10 = load ptr, ptr %5, align 8, !tbaa !3
  %11 = icmp eq ptr %10, null
  br i1 %11, label %12, label %13

12:                                               ; preds = %2
  store i32 -1, ptr %3, align 4
  store i32 1, ptr %7, align 4
  br label %190

13:                                               ; preds = %2
  %14 = load ptr, ptr %5, align 8, !tbaa !3
  store ptr %14, ptr %6, align 8, !tbaa !8
  %15 = load ptr, ptr %6, align 8, !tbaa !8
  %16 = getelementptr inbounds nuw %struct.gz_state, ptr %15, i32 0, i32 1
  %17 = load i32, ptr %16, align 8, !tbaa !11
  %18 = icmp eq i32 %17, 7247
  br i1 %18, label %19, label %33

19:                                               ; preds = %13
  %20 = load ptr, ptr %6, align 8, !tbaa !8
  %21 = getelementptr inbounds nuw %struct.gz_state, ptr %20, i32 0, i32 9
  %22 = load i32, ptr %21, align 4, !tbaa !27
  %23 = icmp eq i32 %22, 0
  br i1 %23, label %24, label %33

24:                                               ; preds = %19
  %25 = load ptr, ptr %6, align 8, !tbaa !8
  %26 = getelementptr inbounds nuw %struct.gz_state, ptr %25, i32 0, i32 0
  %27 = getelementptr inbounds nuw %struct.gzFile_s, ptr %26, i32 0, i32 0
  %28 = load i32, ptr %27, align 8, !tbaa !22
  %29 = icmp eq i32 %28, 0
  br i1 %29, label %30, label %33

30:                                               ; preds = %24
  %31 = load ptr, ptr %6, align 8, !tbaa !8
  %32 = call i32 @gz_look(ptr noundef %31)
  br label %33

33:                                               ; preds = %30, %24, %19, %13
  %34 = load ptr, ptr %6, align 8, !tbaa !8
  %35 = getelementptr inbounds nuw %struct.gz_state, ptr %34, i32 0, i32 1
  %36 = load i32, ptr %35, align 8, !tbaa !11
  %37 = icmp ne i32 %36, 7247
  br i1 %37, label %48, label %38

38:                                               ; preds = %33
  %39 = load ptr, ptr %6, align 8, !tbaa !8
  %40 = getelementptr inbounds nuw %struct.gz_state, ptr %39, i32 0, i32 18
  %41 = load i32, ptr %40, align 4, !tbaa !18
  %42 = icmp ne i32 %41, 0
  br i1 %42, label %43, label %49

43:                                               ; preds = %38
  %44 = load ptr, ptr %6, align 8, !tbaa !8
  %45 = getelementptr inbounds nuw %struct.gz_state, ptr %44, i32 0, i32 18
  %46 = load i32, ptr %45, align 4, !tbaa !18
  %47 = icmp ne i32 %46, -5
  br i1 %47, label %48, label %49

48:                                               ; preds = %43, %33
  store i32 -1, ptr %3, align 4
  store i32 1, ptr %7, align 4
  br label %190

49:                                               ; preds = %43, %38
  %50 = load ptr, ptr %6, align 8, !tbaa !8
  %51 = getelementptr inbounds nuw %struct.gz_state, ptr %50, i32 0, i32 17
  %52 = load i32, ptr %51, align 8, !tbaa !20
  %53 = icmp ne i32 %52, 0
  br i1 %53, label %54, label %65

54:                                               ; preds = %49
  %55 = load ptr, ptr %6, align 8, !tbaa !8
  %56 = getelementptr inbounds nuw %struct.gz_state, ptr %55, i32 0, i32 17
  store i32 0, ptr %56, align 8, !tbaa !20
  %57 = load ptr, ptr %6, align 8, !tbaa !8
  %58 = load ptr, ptr %6, align 8, !tbaa !8
  %59 = getelementptr inbounds nuw %struct.gz_state, ptr %58, i32 0, i32 16
  %60 = load i64, ptr %59, align 8, !tbaa !21
  %61 = call i32 @gz_skip(ptr noundef %57, i64 noundef %60)
  %62 = icmp eq i32 %61, -1
  br i1 %62, label %63, label %64

63:                                               ; preds = %54
  store i32 -1, ptr %3, align 4
  store i32 1, ptr %7, align 4
  br label %190

64:                                               ; preds = %54
  br label %65

65:                                               ; preds = %64, %49
  %66 = load i32, ptr %4, align 4, !tbaa !9
  %67 = icmp slt i32 %66, 0
  br i1 %67, label %68, label %69

68:                                               ; preds = %65
  store i32 -1, ptr %3, align 4
  store i32 1, ptr %7, align 4
  br label %190

69:                                               ; preds = %65
  %70 = load ptr, ptr %6, align 8, !tbaa !8
  %71 = getelementptr inbounds nuw %struct.gz_state, ptr %70, i32 0, i32 0
  %72 = getelementptr inbounds nuw %struct.gzFile_s, ptr %71, i32 0, i32 0
  %73 = load i32, ptr %72, align 8, !tbaa !22
  %74 = icmp eq i32 %73, 0
  br i1 %74, label %75, label %107

75:                                               ; preds = %69
  %76 = load ptr, ptr %6, align 8, !tbaa !8
  %77 = getelementptr inbounds nuw %struct.gz_state, ptr %76, i32 0, i32 0
  %78 = getelementptr inbounds nuw %struct.gzFile_s, ptr %77, i32 0, i32 0
  store i32 1, ptr %78, align 8, !tbaa !22
  %79 = load ptr, ptr %6, align 8, !tbaa !8
  %80 = getelementptr inbounds nuw %struct.gz_state, ptr %79, i32 0, i32 7
  %81 = load ptr, ptr %80, align 8, !tbaa !35
  %82 = load ptr, ptr %6, align 8, !tbaa !8
  %83 = getelementptr inbounds nuw %struct.gz_state, ptr %82, i32 0, i32 4
  %84 = load i32, ptr %83, align 8, !tbaa !28
  %85 = shl i32 %84, 1
  %86 = zext i32 %85 to i64
  %87 = getelementptr inbounds nuw i8, ptr %81, i64 %86
  %88 = getelementptr inbounds i8, ptr %87, i64 -1
  %89 = load ptr, ptr %6, align 8, !tbaa !8
  %90 = getelementptr inbounds nuw %struct.gz_state, ptr %89, i32 0, i32 0
  %91 = getelementptr inbounds nuw %struct.gzFile_s, ptr %90, i32 0, i32 1
  store ptr %88, ptr %91, align 8, !tbaa !23
  %92 = load i32, ptr %4, align 4, !tbaa !9
  %93 = trunc i32 %92 to i8
  %94 = load ptr, ptr %6, align 8, !tbaa !8
  %95 = getelementptr inbounds nuw %struct.gz_state, ptr %94, i32 0, i32 0
  %96 = getelementptr inbounds nuw %struct.gzFile_s, ptr %95, i32 0, i32 1
  %97 = load ptr, ptr %96, align 8, !tbaa !23
  %98 = getelementptr inbounds i8, ptr %97, i64 0
  store i8 %93, ptr %98, align 1, !tbaa !34
  %99 = load ptr, ptr %6, align 8, !tbaa !8
  %100 = getelementptr inbounds nuw %struct.gz_state, ptr %99, i32 0, i32 0
  %101 = getelementptr inbounds nuw %struct.gzFile_s, ptr %100, i32 0, i32 2
  %102 = load i64, ptr %101, align 8, !tbaa !31
  %103 = add nsw i64 %102, -1
  store i64 %103, ptr %101, align 8, !tbaa !31
  %104 = load ptr, ptr %6, align 8, !tbaa !8
  %105 = getelementptr inbounds nuw %struct.gz_state, ptr %104, i32 0, i32 12
  store i32 0, ptr %105, align 4, !tbaa !26
  %106 = load i32, ptr %4, align 4, !tbaa !9
  store i32 %106, ptr %3, align 4
  store i32 1, ptr %7, align 4
  br label %190

107:                                              ; preds = %69
  %108 = load ptr, ptr %6, align 8, !tbaa !8
  %109 = getelementptr inbounds nuw %struct.gz_state, ptr %108, i32 0, i32 0
  %110 = getelementptr inbounds nuw %struct.gzFile_s, ptr %109, i32 0, i32 0
  %111 = load i32, ptr %110, align 8, !tbaa !22
  %112 = load ptr, ptr %6, align 8, !tbaa !8
  %113 = getelementptr inbounds nuw %struct.gz_state, ptr %112, i32 0, i32 4
  %114 = load i32, ptr %113, align 8, !tbaa !28
  %115 = shl i32 %114, 1
  %116 = icmp eq i32 %111, %115
  br i1 %116, label %117, label %119

117:                                              ; preds = %107
  %118 = load ptr, ptr %6, align 8, !tbaa !8
  call void @gz_error(ptr noundef %118, i32 noundef -3, ptr noundef @.str.2)
  store i32 -1, ptr %3, align 4
  store i32 1, ptr %7, align 4
  br label %190

119:                                              ; preds = %107
  %120 = load ptr, ptr %6, align 8, !tbaa !8
  %121 = getelementptr inbounds nuw %struct.gz_state, ptr %120, i32 0, i32 0
  %122 = getelementptr inbounds nuw %struct.gzFile_s, ptr %121, i32 0, i32 1
  %123 = load ptr, ptr %122, align 8, !tbaa !23
  %124 = load ptr, ptr %6, align 8, !tbaa !8
  %125 = getelementptr inbounds nuw %struct.gz_state, ptr %124, i32 0, i32 7
  %126 = load ptr, ptr %125, align 8, !tbaa !35
  %127 = icmp eq ptr %123, %126
  br i1 %127, label %128, label %164

128:                                              ; preds = %119
  call void @llvm.lifetime.start.p0(i64 8, ptr %8) #8
  %129 = load ptr, ptr %6, align 8, !tbaa !8
  %130 = getelementptr inbounds nuw %struct.gz_state, ptr %129, i32 0, i32 7
  %131 = load ptr, ptr %130, align 8, !tbaa !35
  %132 = load ptr, ptr %6, align 8, !tbaa !8
  %133 = getelementptr inbounds nuw %struct.gz_state, ptr %132, i32 0, i32 0
  %134 = getelementptr inbounds nuw %struct.gzFile_s, ptr %133, i32 0, i32 0
  %135 = load i32, ptr %134, align 8, !tbaa !22
  %136 = zext i32 %135 to i64
  %137 = getelementptr inbounds nuw i8, ptr %131, i64 %136
  store ptr %137, ptr %8, align 8, !tbaa !36
  call void @llvm.lifetime.start.p0(i64 8, ptr %9) #8
  %138 = load ptr, ptr %6, align 8, !tbaa !8
  %139 = getelementptr inbounds nuw %struct.gz_state, ptr %138, i32 0, i32 7
  %140 = load ptr, ptr %139, align 8, !tbaa !35
  %141 = load ptr, ptr %6, align 8, !tbaa !8
  %142 = getelementptr inbounds nuw %struct.gz_state, ptr %141, i32 0, i32 4
  %143 = load i32, ptr %142, align 8, !tbaa !28
  %144 = shl i32 %143, 1
  %145 = zext i32 %144 to i64
  %146 = getelementptr inbounds nuw i8, ptr %140, i64 %145
  store ptr %146, ptr %9, align 8, !tbaa !36
  br label %147

147:                                              ; preds = %153, %128
  %148 = load ptr, ptr %8, align 8, !tbaa !36
  %149 = load ptr, ptr %6, align 8, !tbaa !8
  %150 = getelementptr inbounds nuw %struct.gz_state, ptr %149, i32 0, i32 7
  %151 = load ptr, ptr %150, align 8, !tbaa !35
  %152 = icmp ugt ptr %148, %151
  br i1 %152, label %153, label %159

153:                                              ; preds = %147
  %154 = load ptr, ptr %8, align 8, !tbaa !36
  %155 = getelementptr inbounds i8, ptr %154, i32 -1
  store ptr %155, ptr %8, align 8, !tbaa !36
  %156 = load i8, ptr %155, align 1, !tbaa !34
  %157 = load ptr, ptr %9, align 8, !tbaa !36
  %158 = getelementptr inbounds i8, ptr %157, i32 -1
  store ptr %158, ptr %9, align 8, !tbaa !36
  store i8 %156, ptr %158, align 1, !tbaa !34
  br label %147, !llvm.loop !37

159:                                              ; preds = %147
  %160 = load ptr, ptr %9, align 8, !tbaa !36
  %161 = load ptr, ptr %6, align 8, !tbaa !8
  %162 = getelementptr inbounds nuw %struct.gz_state, ptr %161, i32 0, i32 0
  %163 = getelementptr inbounds nuw %struct.gzFile_s, ptr %162, i32 0, i32 1
  store ptr %160, ptr %163, align 8, !tbaa !23
  call void @llvm.lifetime.end.p0(i64 8, ptr %9) #8
  call void @llvm.lifetime.end.p0(i64 8, ptr %8) #8
  br label %164

164:                                              ; preds = %159, %119
  %165 = load ptr, ptr %6, align 8, !tbaa !8
  %166 = getelementptr inbounds nuw %struct.gz_state, ptr %165, i32 0, i32 0
  %167 = getelementptr inbounds nuw %struct.gzFile_s, ptr %166, i32 0, i32 0
  %168 = load i32, ptr %167, align 8, !tbaa !22
  %169 = add i32 %168, 1
  store i32 %169, ptr %167, align 8, !tbaa !22
  %170 = load ptr, ptr %6, align 8, !tbaa !8
  %171 = getelementptr inbounds nuw %struct.gz_state, ptr %170, i32 0, i32 0
  %172 = getelementptr inbounds nuw %struct.gzFile_s, ptr %171, i32 0, i32 1
  %173 = load ptr, ptr %172, align 8, !tbaa !23
  %174 = getelementptr inbounds i8, ptr %173, i32 -1
  store ptr %174, ptr %172, align 8, !tbaa !23
  %175 = load i32, ptr %4, align 4, !tbaa !9
  %176 = trunc i32 %175 to i8
  %177 = load ptr, ptr %6, align 8, !tbaa !8
  %178 = getelementptr inbounds nuw %struct.gz_state, ptr %177, i32 0, i32 0
  %179 = getelementptr inbounds nuw %struct.gzFile_s, ptr %178, i32 0, i32 1
  %180 = load ptr, ptr %179, align 8, !tbaa !23
  %181 = getelementptr inbounds i8, ptr %180, i64 0
  store i8 %176, ptr %181, align 1, !tbaa !34
  %182 = load ptr, ptr %6, align 8, !tbaa !8
  %183 = getelementptr inbounds nuw %struct.gz_state, ptr %182, i32 0, i32 0
  %184 = getelementptr inbounds nuw %struct.gzFile_s, ptr %183, i32 0, i32 2
  %185 = load i64, ptr %184, align 8, !tbaa !31
  %186 = add nsw i64 %185, -1
  store i64 %186, ptr %184, align 8, !tbaa !31
  %187 = load ptr, ptr %6, align 8, !tbaa !8
  %188 = getelementptr inbounds nuw %struct.gz_state, ptr %187, i32 0, i32 12
  store i32 0, ptr %188, align 4, !tbaa !26
  %189 = load i32, ptr %4, align 4, !tbaa !9
  store i32 %189, ptr %3, align 4
  store i32 1, ptr %7, align 4
  br label %190

190:                                              ; preds = %164, %117, %75, %68, %63, %48, %12
  call void @llvm.lifetime.end.p0(i64 8, ptr %6) #8
  %191 = load i32, ptr %3, align 4
  ret i32 %191
}