; Function Attrs: nounwind uwtable
define range(i32 -1, -2147483648) i32 @gzungetc(i32 noundef %0, ptr noundef %1) local_unnamed_addr #0 {
  %3 = icmp eq ptr %1, null
  br i1 %3, label %.thread, label %4

4:                                                ; preds = %2
  %5 = getelementptr inbounds nuw i8, ptr %1, i64 24
  %6 = load i32, ptr %5, align 8, !tbaa !3
  %7 = icmp eq i32 %6, 7247
  br i1 %7, label %8, label %.thread

8:                                                ; preds = %4
  %9 = getelementptr inbounds nuw i8, ptr %1, i64 68
  %10 = load i32, ptr %9, align 4, !tbaa !25
  %11 = icmp eq i32 %10, 0
  br i1 %11, label %12, label %.thread64

12:                                               ; preds = %8
  %13 = load i32, ptr %1, align 8, !tbaa !17
  %14 = icmp eq i32 %13, 0
  br i1 %14, label %15, label %.thread64

15:                                               ; preds = %12
  %16 = tail call fastcc i32 @gz_look(ptr noundef %1)
  %.pr.pre = load i32, ptr %5, align 8, !tbaa !3
  %17 = icmp eq i32 %.pr.pre, 7247
  br i1 %17, label %.thread64, label %.thread

.thread64:                                        ; preds = %8, %12, %15
  %18 = getelementptr inbounds nuw i8, ptr %1, i64 116
  %19 = load i32, ptr %18, align 4, !tbaa !14
  switch i32 %19, label %.thread [
    i32 0, label %20
    i32 -5, label %20
  ]

20:                                               ; preds = %.thread64, %.thread64
  %21 = getelementptr inbounds nuw i8, ptr %1, i64 112
  %22 = load i32, ptr %21, align 8, !tbaa !15
  %.not56 = icmp eq i32 %22, 0
  br i1 %.not56, label %53, label %23

23:                                               ; preds = %20
  store i32 0, ptr %21, align 8, !tbaa !15
  %24 = getelementptr inbounds nuw i8, ptr %1, i64 104
  %25 = load i64, ptr %24, align 8, !tbaa !16
  %26 = getelementptr inbounds nuw i8, ptr %1, i64 136
  %.not21.i = icmp eq i64 %25, 0
  br i1 %.not21.i, label %gz_skip.exit, label %.lr.ph.i

.lr.ph.i:                                         ; preds = %23
  %27 = getelementptr inbounds nuw i8, ptr %1, i64 8
  %28 = getelementptr inbounds nuw i8, ptr %1, i64 16
  %29 = getelementptr inbounds nuw i8, ptr %1, i64 80
  br label %30

30:                                               ; preds = %51, %.lr.ph.i
  %.01722.i = phi i64 [ %25, %.lr.ph.i ], [ %.1.i, %51 ]
  %31 = load i32, ptr %1, align 8, !tbaa !17
  %.not19.i = icmp eq i32 %31, 0
  br i1 %.not19.i, label %43, label %32

32:                                               ; preds = %30
  %33 = zext i32 %31 to i64
  %34 = tail call i64 @llvm.smin.i64(i64 %.01722.i, i64 %33)
  %35 = trunc i64 %34 to i32
  %36 = sub i32 %31, %35
  store i32 %36, ptr %1, align 8, !tbaa !17
  %37 = load ptr, ptr %27, align 8, !tbaa !18
  %38 = and i64 %34, 4294967295
  %39 = getelementptr inbounds nuw i8, ptr %37, i64 %38
  store ptr %39, ptr %27, align 8, !tbaa !18
  %40 = load i64, ptr %28, align 8, !tbaa !19
  %41 = add nsw i64 %40, %38
  store i64 %41, ptr %28, align 8, !tbaa !19
  %42 = sub nsw i64 %.01722.i, %38
  br label %51

43:                                               ; preds = %30
  %44 = load i32, ptr %29, align 8, !tbaa !20
  %.not20.i = icmp eq i32 %44, 0
  br i1 %.not20.i, label %48, label %45

45:                                               ; preds = %43
  %46 = load i32, ptr %26, align 8, !tbaa !21
  %47 = icmp eq i32 %46, 0
  br i1 %47, label %gz_skip.exit, label %48

48:                                               ; preds = %45, %43
  %49 = tail call fastcc i32 @gz_fetch(ptr noundef nonnull %1)
  %50 = icmp eq i32 %49, -1
  br i1 %50, label %.thread, label %51

51:                                               ; preds = %48, %32
  %.1.i = phi i64 [ %42, %32 ], [ %.01722.i, %48 ]
  %.not.i = icmp eq i64 %.1.i, 0
  br i1 %.not.i, label %gz_skip.exit, label %30, !llvm.loop !22

gz_skip.exit:                                     ; preds = %45, %51, %23
  %52 = icmp slt i32 %0, 0
  br i1 %52, label %.thread, label %54

53:                                               ; preds = %20
  %.old = icmp slt i32 %0, 0
  br i1 %.old, label %.thread, label %54

54:                                               ; preds = %gz_skip.exit, %53
  %55 = load i32, ptr %1, align 8, !tbaa !17
  %56 = icmp eq i32 %55, 0
  br i1 %56, label %57, label %72

57:                                               ; preds = %54
  store i32 1, ptr %1, align 8, !tbaa !17
  %58 = getelementptr inbounds nuw i8, ptr %1, i64 56
  %59 = load ptr, ptr %58, align 8, !tbaa !34
  %60 = getelementptr inbounds nuw i8, ptr %1, i64 40
  %61 = load i32, ptr %60, align 8, !tbaa !26
  %62 = shl i32 %61, 1
  %63 = zext i32 %62 to i64
  %64 = getelementptr inbounds nuw i8, ptr %59, i64 %63
  %65 = getelementptr inbounds i8, ptr %64, i64 -1
  %66 = getelementptr inbounds nuw i8, ptr %1, i64 8
  store ptr %65, ptr %66, align 8, !tbaa !18
  %67 = trunc i32 %0 to i8
  store i8 %67, ptr %65, align 1, !tbaa !33
  %68 = getelementptr inbounds nuw i8, ptr %1, i64 16
  %69 = load i64, ptr %68, align 8, !tbaa !19
  %70 = add nsw i64 %69, -1
  store i64 %70, ptr %68, align 8, !tbaa !19
  %71 = getelementptr inbounds nuw i8, ptr %1, i64 84
  store i32 0, ptr %71, align 4, !tbaa !24
  br label %.thread

72:                                               ; preds = %54
  %73 = getelementptr inbounds nuw i8, ptr %1, i64 40
  %74 = load i32, ptr %73, align 8, !tbaa !26
  %75 = shl i32 %74, 1
  %76 = icmp eq i32 %55, %75
  br i1 %76, label %77, label %78

77:                                               ; preds = %72
  tail call void @gz_error(ptr noundef nonnull %1, i32 noundef -3, ptr noundef nonnull @.str.2) #12
  br label %.thread

78:                                               ; preds = %72
  %79 = getelementptr inbounds nuw i8, ptr %1, i64 8
  %80 = load ptr, ptr %79, align 8, !tbaa !18
  %81 = getelementptr inbounds nuw i8, ptr %1, i64 56
  %82 = load ptr, ptr %81, align 8, !tbaa !34
  %83 = icmp eq ptr %80, %82
  br i1 %83, label %84, label %._crit_edge

84:                                               ; preds = %78
  %85 = zext i32 %55 to i64
  %86 = getelementptr inbounds nuw i8, ptr %82, i64 %85
  %87 = zext i32 %75 to i64
  %88 = getelementptr inbounds nuw i8, ptr %82, i64 %87
  %89 = icmp ugt ptr %86, %80
  br i1 %89, label %.lr.ph, label %._crit_edge

.lr.ph:                                           ; preds = %84, %.lr.ph
  %.061 = phi ptr [ %92, %.lr.ph ], [ %88, %84 ]
  %.04660 = phi ptr [ %90, %.lr.ph ], [ %86, %84 ]
  %90 = getelementptr inbounds i8, ptr %.04660, i64 -1
  %91 = load i8, ptr %90, align 1, !tbaa !33
  %92 = getelementptr inbounds i8, ptr %.061, i64 -1
  store i8 %91, ptr %92, align 1, !tbaa !33
  %93 = load ptr, ptr %81, align 8, !tbaa !34
  %94 = icmp ugt ptr %90, %93
  br i1 %94, label %.lr.ph, label %._crit_edge.loopexit, !llvm.loop !35

._crit_edge.loopexit:                             ; preds = %.lr.ph
  %.pre.pre = load i32, ptr %1, align 8, !tbaa !17
  br label %._crit_edge

._crit_edge:                                      ; preds = %84, %._crit_edge.loopexit, %78
  %95 = phi ptr [ %80, %78 ], [ %88, %84 ], [ %92, %._crit_edge.loopexit ]
  %96 = phi i32 [ %55, %78 ], [ %55, %84 ], [ %.pre.pre, %._crit_edge.loopexit ]
  %97 = add i32 %96, 1
  store i32 %97, ptr %1, align 8, !tbaa !17
  %98 = getelementptr inbounds i8, ptr %95, i64 -1
  store ptr %98, ptr %79, align 8, !tbaa !18
  %99 = trunc i32 %0 to i8
  store i8 %99, ptr %98, align 1, !tbaa !33
  %100 = getelementptr inbounds nuw i8, ptr %1, i64 16
  %101 = load i64, ptr %100, align 8, !tbaa !19
  %102 = add nsw i64 %101, -1
  store i64 %102, ptr %100, align 8, !tbaa !19
  %103 = getelementptr inbounds nuw i8, ptr %1, i64 84
  store i32 0, ptr %103, align 4, !tbaa !24
  br label %.thread

.thread:                                          ; preds = %48, %4, %53, %gz_skip.exit, %15, %.thread64, %2, %._crit_edge, %77, %57
  %.047 = phi i32 [ %0, %57 ], [ -1, %77 ], [ %0, %._crit_edge ], [ -1, %2 ], [ -1, %.thread64 ], [ -1, %15 ], [ -1, %gz_skip.exit ], [ -1, %53 ], [ -1, %4 ], [ -1, %48 ]
  ret i32 %.047
}